///////////////////////////////////////////////////////////////////////////////
//
// IAR ANSI C/C++ Compiler V8.40.2.214/W32 for ARM        11/May/2020  11:31:42
// Copyright 1999-2019 IAR Systems AB.
//
//    Cpu mode     =  
//    Endian       =  little
//    Source file  =
//        D:\kraizette\STD\VII-VIII\POIP\KURS\KURS\Kursovoy\Applications\Output\Display\DisplayDirector.cpp
//    Command line =
//        -f C:\Users\User\AppData\Local\Temp\EW4376.tmp
//        (D:\kraizette\STD\VII-VIII\POIP\KURS\KURS\Kursovoy\Applications\Output\Display\DisplayDirector.cpp
//        -lC D:\kraizette\STD\VII-VIII\POIP\KURS\KURS\Kursovoy\Debug\List -lA
//        D:\kraizette\STD\VII-VIII\POIP\KURS\KURS\Kursovoy\Debug\List -o
//        D:\kraizette\STD\VII-VIII\POIP\KURS\KURS\Kursovoy\Debug\Obj --no_cse
//        --no_unroll --no_inline --no_code_motion --no_tbaa --no_clustering
//        --no_scheduling --debug --endian=little --cpu=Cortex-M4 -e
//        --fpu=VFPv4_sp --dlib_config "C:\Programs\IAR
//        Arm\arm\inc\c\DLib_Config_Normal.h" -I
//        D:\kraizette\STD\VII-VIII\POIP\KURS\KURS\Kursovoy\Rtos\ -I
//        D:\kraizette\STD\VII-VIII\POIP\KURS\KURS\Kursovoy\Rtos\wrapper\ -I
//        D:\kraizette\STD\VII-VIII\POIP\KURS\KURS\Kursovoy\Rtos\wrapper\FreeRtos\
//        -I D:\kraizette\STD\VII-VIII\POIP\KURS\KURS\Kursovoy\Rtos\FreeRtos\
//        -I
//        D:\kraizette\STD\VII-VIII\POIP\KURS\KURS\Kursovoy\Rtos\FreeRtos\include\
//        -I
//        D:\kraizette\STD\VII-VIII\POIP\KURS\KURS\Kursovoy\Rtos\FreeRtos\portable\
//        -I
//        D:\kraizette\STD\VII-VIII\POIP\KURS\KURS\Kursovoy\Rtos\FreeRtos\portable\Common\
//        -I
//        D:\kraizette\STD\VII-VIII\POIP\KURS\KURS\Kursovoy\Rtos\FreeRtos\portable\IAR\
//        -I
//        D:\kraizette\STD\VII-VIII\POIP\KURS\KURS\Kursovoy\Rtos\FreeRtos\portable\IAR\ARM_CM4F\
//        -I
//        D:\kraizette\STD\VII-VIII\POIP\KURS\KURS\Kursovoy\Rtos\FreeRtos\portable\MemMang\
//        -I D:\kraizette\STD\VII-VIII\POIP\KURS\KURS\Kursovoy\MyTasks\ -I
//        D:\kraizette\STD\VII-VIII\POIP\KURS\KURS\Kursovoy\Common\ -I
//        D:\kraizette\STD\VII-VIII\POIP\KURS\KURS\Kursovoy\CMSIS\ -I
//        D:\kraizette\STD\VII-VIII\POIP\KURS\KURS\Kursovoy\Application\ -I
//        D:\kraizette\STD\VII-VIII\POIP\KURS\KURS\Kursovoy\Application\Diagnostic\
//        -I D:\kraizette\STD\VII-VIII\POIP\KURS\KURS\Kursovoy\AHardware\ -I
//        D:\kraizette\STD\VII-VIII\POIP\KURS\KURS\Kursovoy\AHardware\GpioPort\
//        -I
//        D:\kraizette\STD\VII-VIII\POIP\KURS\KURS\Kursovoy\AHardware\IrqController\
//        -I
//        D:\kraizette\STD\VII-VIII\POIP\KURS\KURS\Kursovoy\..\CortexLib\AbstractHardware\Pin\
//        -I
//        D:\kraizette\STD\VII-VIII\POIP\KURS\KURS\Kursovoy\..\CortexLib\AbstractHardware\Registers\STM32F411\FieldValues\
//        -I
//        D:\kraizette\STD\VII-VIII\POIP\KURS\KURS\Kursovoy\..\CortexLib\AbstractHardware\Registers\STM32F411\
//        -I
//        D:\kraizette\STD\VII-VIII\POIP\KURS\KURS\Kursovoy\..\CortexLib\AbstractHardware\Registers\
//        -I
//        D:\kraizette\STD\VII-VIII\POIP\KURS\KURS\Kursovoy\..\CortexLib\AbstractHardware\Port\
//        -I
//        D:\kraizette\STD\VII-VIII\POIP\KURS\KURS\Kursovoy\..\CortexLib\AbstractHardware\Atomic\
//        -I
//        D:\kraizette\STD\VII-VIII\POIP\KURS\KURS\Kursovoy\..\CortexLib\Common\
//        -I
//        D:\kraizette\STD\VII-VIII\POIP\KURS\KURS\Kursovoy\..\CortexLib\Common\Singleton\
//        -I
//        D:\kraizette\STD\VII-VIII\POIP\KURS\KURS\Kursovoy\AbstractHardware\
//        -I
//        D:\kraizette\STD\VII-VIII\POIP\KURS\KURS\Kursovoy\AbstractHardware\SPI\
//        -I
//        D:\kraizette\STD\VII-VIII\POIP\KURS\KURS\Kursovoy\AbstractHardware\Pin\
//        -I
//        D:\kraizette\STD\VII-VIII\POIP\KURS\KURS\Kursovoy\AbstractHardware\USART\
//        -I D:\kraizette\STD\VII-VIII\POIP\KURS\KURS\Kursovoy\Applications\ -I
//        D:\kraizette\STD\VII-VIII\POIP\KURS\KURS\Kursovoy\Applications\Button\
//        -I
//        D:\kraizette\STD\VII-VIII\POIP\KURS\KURS\Kursovoy\Applications\Sensor\
//        -I
//        D:\kraizette\STD\VII-VIII\POIP\KURS\KURS\Kursovoy\Applications\Sensor\Driver\
//        -I
//        D:\kraizette\STD\VII-VIII\POIP\KURS\KURS\Kursovoy\Applications\Sensor\Variables\
//        -I
//        D:\kraizette\STD\VII-VIII\POIP\KURS\KURS\Kursovoy\Applications\Output\
//        -I
//        D:\kraizette\STD\VII-VIII\POIP\KURS\KURS\Kursovoy\Applications\Output\Display\
//        -I
//        D:\kraizette\STD\VII-VIII\POIP\KURS\KURS\Kursovoy\Applications\Output\Display\Driver\
//        -I
//        D:\kraizette\STD\VII-VIII\POIP\KURS\KURS\Kursovoy\Applications\Output\Format\
//        -I
//        D:\kraizette\STD\VII-VIII\POIP\KURS\KURS\Kursovoy\Applications\Output\Display\Driver\Fonts\
//        -Ol --c++ --no_exceptions --no_rtti)
//    Locale       =  C
//    List file    =
//        D:\kraizette\STD\VII-VIII\POIP\KURS\KURS\Kursovoy\Debug\List\DisplayDirector.s
//
///////////////////////////////////////////////////////////////////////////////

        RTMODEL "__CPP_Exceptions", "Disabled"
        RTMODEL "__CPP_Language", "C++14"
        RTMODEL "__SystemLibrary", "DLib"
        RTMODEL "__dlib_file_descriptor", "0"
        RTMODEL "__dlib_full_locale_support", "0"
        RTMODEL "__dlib_version", "6"
        AAPCS BASE,INTERWORK,VFP
        PRESERVE8
        REQUIRE8

        #define SHT_PROGBITS 0x1

        EXTERN _ZTVN10__cxxabiv117__class_type_infoE
        EXTERN _ZTVN10__cxxabiv120__si_class_type_infoE
        EXTERN __aeabi_ldivmod
        EXTERN __aeabi_memmove
        EXTERN vTaskDelay

        PUBLIC _ZN10SusuStringILj40EE3SetILj5EEEvRAT__Kc
        PUBLIC _ZN10SusuStringILj40EE3SetILj9EEEvRAT__Kc
        PUBLIC _ZN10SusuStringILj40EEC1Ev
        PUBLIC _ZN15DisplayDirector7ExecuteEv
        PUBLIC _ZN9OsWrapper11RtosWrapper6wSleepEj
        PUBLIC _ZN9OsWrapper7IThread5SleepENSt6chrono8durationIxSt5ratioILx1ELx1000EEEE
        PUBLIC _ZNKSt15_Array_iteratorIcLj40EE10_UncheckedEv
        PUBLIC _ZNKSt21_Array_const_iteratorIcLj40EE10_UncheckedEv
        PUBLIC _ZNKSt6chrono8durationIjSt5ratioILx10ELx1000EEE5countEv
        PUBLIC _ZNKSt6chrono8durationIxSt5ratioILx1ELx1000EEE5countEv
        PUBLIC _ZNSt15_Array_iteratorIcLj40EE10_RecheckedEPc
        PUBLIC _ZNSt15_Array_iteratorIcLj40EEC1EPcj
        PUBLIC _ZNSt21_Array_const_iteratorIcLj40EE10_RecheckedEPKc
        PUBLIC _ZNSt21_Array_const_iteratorIcLj40EEC1EPKcj
        PUBLIC _ZNSt21_Array_const_iteratorIcLj40EEC2EPKcj
        PUBLIC _ZNSt5arrayIcLj40EE5beginEv
        PUBLIC _ZNSt6chrono12steady_clock9is_steadyE
        PUBLIC _ZNSt6chrono12system_clock12is_monotonicE
        PUBLIC _ZNSt6chrono12system_clock9is_steadyE
        PUBLIC _ZNSt6chrono13duration_castINS_8durationIjSt5ratioILx10ELx1000EEEExS2_ILx1ELx1000EEEENSt9enable_ifIXsr3std6chrono12_Is_durationIT_EE5valueES7_E4typeERKNS1_IT0_T1_EE
        PUBLIC _ZNSt6chrono8durationIjSt5ratioILx10ELx1000EEEC1IjvEERKT_
        PUBLIC _ZSt10_AddressofIcEPT_RS0_St17integral_constantIbLb0EE
        PUBLIC _ZSt10_Copy_implIPKcPcET0_T_S4_S3_
        PUBLIC _ZSt10_Copy_implIPKcPcET0_T_S4_S3_St24_Scalar_ptr_iterator_tag
        PUBLIC _ZSt10_RecheckedIcLj40EERSt15_Array_iteratorIT_XT0_EES3_NS2_15_Unchecked_typeE
        PUBLIC _ZSt10_UncheckedIPKcET_S2_
        PUBLIC _ZSt10_UncheckedIcLj40EENSt15_Array_iteratorIT_XT0_EE15_Unchecked_typeES2_
        PUBLIC _ZSt4copyIPKcSt15_Array_iteratorIcLj40EEET0_T_S5_S4_
        PUBLIC _ZSt8_Ptr_catPKcPc
        PUBLIC _ZSt9addressofIcEPT_RS0_
        PUBLIC _ZTI12IDisplayView
        PUBLIC _ZTI15DisplayDirector
        PUBLIC _ZTIN9OsWrapper6ThreadILj256EEE
        PUBLIC _ZTIN9OsWrapper7IThreadE
        PUBLIC _ZTISt10ctype_base
        PUBLIC _ZTISt5_IosbIiE
        PUBLIC _ZTS12IDisplayView
        PUBLIC _ZTS15DisplayDirector
        PUBLIC _ZTSN9OsWrapper6ThreadILj256EEE
        PUBLIC _ZTSN9OsWrapper7IThreadE
        PUBLIC _ZTSSt10ctype_base
        PUBLIC _ZTSSt5_IosbIiE
        PUBLIC _ZTV15DisplayDirector
        
          CFI Names cfiNames0
          CFI StackFrame CFA R13 DATA
          CFI Resource R0:32, R1:32, R2:32, R3:32, R4:32, R5:32, R6:32, R7:32
          CFI Resource R8:32, R9:32, R10:32, R11:32, R12:32, R13:32, R14:32
          CFI Resource D0:64, D1:64, D2:64, D3:64, D4:64, D5:64, D6:64, D7:64
          CFI Resource D8:64, D9:64, D10:64, D11:64, D12:64, D13:64, D14:64
          CFI Resource D15:64
          CFI EndNames cfiNames0
        
          CFI Common cfiCommon0 Using cfiNames0
          CFI CodeAlign 2
          CFI DataAlign 4
          CFI ReturnAddress R14 CODE
          CFI CFA R13+0
          CFI R0 Undefined
          CFI R1 Undefined
          CFI R2 Undefined
          CFI R3 Undefined
          CFI R4 SameValue
          CFI R5 SameValue
          CFI R6 SameValue
          CFI R7 SameValue
          CFI R8 SameValue
          CFI R9 SameValue
          CFI R10 SameValue
          CFI R11 SameValue
          CFI R12 Undefined
          CFI R14 SameValue
          CFI D0 Undefined
          CFI D1 Undefined
          CFI D2 Undefined
          CFI D3 Undefined
          CFI D4 Undefined
          CFI D5 Undefined
          CFI D6 Undefined
          CFI D7 Undefined
          CFI D8 SameValue
          CFI D9 SameValue
          CFI D10 SameValue
          CFI D11 SameValue
          CFI D12 SameValue
          CFI D13 SameValue
          CFI D14 SameValue
          CFI D15 SameValue
          CFI EndCommon cfiCommon0
        
// D:\kraizette\STD\VII-VIII\POIP\KURS\KURS\Kursovoy\Applications\Output\Display\DisplayDirector.cpp
//    1 //DisplayDirector.cpp
//    2 
//    3 #include "DisplayDirector.hpp" 

        SECTION `.text`:CODE:REORDER:NOROOT(1)
        SECTION_GROUP _ZSt10_AddressofIcEPT_RS0_St17integral_constantIbLb0EE
          CFI Block cfiBlock0 Using cfiCommon0
          CFI Function _ZSt10_AddressofIcEPT_RS0_St17integral_constantIbLb0EE
          CFI NoCalls
        THUMB
// __interwork __vfp char *std::_Addressof<char>(char &, std::false_type)
_ZSt10_AddressofIcEPT_RS0_St17integral_constantIbLb0EE:
        BX       LR               ;; return
          CFI EndBlock cfiBlock0

        SECTION `.text`:CODE:REORDER:NOROOT(1)
        SECTION_GROUP _ZSt9addressofIcEPT_RS0_
          CFI Block cfiBlock1 Using cfiCommon0
          CFI Function _ZSt9addressofIcEPT_RS0_
        THUMB
// __interwork __vfp char *std::addressof<char>(char &)
_ZSt9addressofIcEPT_RS0_:
        PUSH     {R7,LR}
          CFI R14 Frame(CFA, -4)
          CFI CFA R13+8
          CFI FunCall _ZSt10_AddressofIcEPT_RS0_St17integral_constantIbLb0EE
        BL       _ZSt10_AddressofIcEPT_RS0_St17integral_constantIbLb0EE
        POP      {R1,PC}          ;; return
          CFI EndBlock cfiBlock1

        SECTION `.text`:CODE:REORDER:NOROOT(1)
        SECTION_GROUP _ZSt10_UncheckedIPKcET_S2_
          CFI Block cfiBlock2 Using cfiCommon0
          CFI Function _ZSt10_UncheckedIPKcET_S2_
          CFI NoCalls
        THUMB
// __interwork __vfp char const *std::_Unchecked<char const *>(char const *)
_ZSt10_UncheckedIPKcET_S2_:
        BX       LR               ;; return
          CFI EndBlock cfiBlock2

        SECTION `.text`:CODE:REORDER:NOROOT(1)
        SECTION_GROUP _ZSt8_Ptr_catPKcPc
          CFI Block cfiBlock3 Using cfiCommon0
          CFI Function _ZSt8_Ptr_catPKcPc
          CFI NoCalls
        THUMB
// __interwork __vfp std::_Scalar_ptr_iterator_tag std::_Ptr_cat(char const *, char *)
_ZSt8_Ptr_catPKcPc:
        BX       LR               ;; return
          CFI EndBlock cfiBlock3

        SECTION `.text`:CODE:REORDER:NOROOT(1)
        SECTION_GROUP _ZNSt21_Array_const_iteratorIcLj40EEC1EPKcj
          CFI Block cfiBlock4 Using cfiCommon0
          CFI Function _ZNSt21_Array_const_iteratorIcLj40EEC1EPKcj
          CFI NoCalls
        THUMB
// __code __interwork __vfp std::_Array_const_iterator<char, 40U>::_Array_const_iterator(char const *, size_t)
_ZNSt21_Array_const_iteratorIcLj40EEC1EPKcj:
        ADD      R1,R1,R2
        STR      R1,[R0, #+0]
        BX       LR               ;; return
          CFI EndBlock cfiBlock4

        SECTION `.text`:CODE:REORDER:NOROOT(1)
        SECTION_GROUP _ZNSt21_Array_const_iteratorIcLj40EEC2EPKcj
          CFI Block cfiBlock5 Using cfiCommon0
          CFI Function _ZNSt21_Array_const_iteratorIcLj40EEC2EPKcj
        THUMB
// __code __interwork __vfp std::_Array_const_iterator<char, 40U>::subobject _Array_const_iterator(char const *, size_t)
_ZNSt21_Array_const_iteratorIcLj40EEC2EPKcj:
        PUSH     {R7,LR}
          CFI R14 Frame(CFA, -4)
          CFI CFA R13+8
          CFI FunCall _ZNSt21_Array_const_iteratorIcLj40EEC1EPKcj
        BL       _ZNSt21_Array_const_iteratorIcLj40EEC1EPKcj
        POP      {R1,PC}          ;; return
          CFI EndBlock cfiBlock5

        SECTION `.text`:CODE:REORDER:NOROOT(1)
        SECTION_GROUP _ZNSt21_Array_const_iteratorIcLj40EE10_RecheckedEPKc
          CFI Block cfiBlock6 Using cfiCommon0
          CFI Function _ZNSt21_Array_const_iteratorIcLj40EE10_RecheckedEPKc
          CFI NoCalls
        THUMB
// __interwork __vfp std::_Array_const_iterator<char, 40U> &std::_Array_const_iterator<char, 40U>::_Rechecked(char const *)
_ZNSt21_Array_const_iteratorIcLj40EE10_RecheckedEPKc:
        STR      R1,[R0, #+0]
        BX       LR               ;; return
          CFI EndBlock cfiBlock6

        SECTION `.text`:CODE:REORDER:NOROOT(1)
        SECTION_GROUP _ZNKSt21_Array_const_iteratorIcLj40EE10_UncheckedEv
          CFI Block cfiBlock7 Using cfiCommon0
          CFI Function _ZNKSt21_Array_const_iteratorIcLj40EE10_UncheckedEv
          CFI NoCalls
        THUMB
// __interwork __vfp char const * std::_Array_const_iterator<char, 40U>::_Unchecked() const
_ZNKSt21_Array_const_iteratorIcLj40EE10_UncheckedEv:
        LDR      R0,[R0, #+0]
        BX       LR               ;; return
          CFI EndBlock cfiBlock7

        SECTION `.text`:CODE:REORDER:NOROOT(1)
        SECTION_GROUP _ZNSt15_Array_iteratorIcLj40EEC1EPcj
          CFI Block cfiBlock8 Using cfiCommon0
          CFI Function _ZNSt15_Array_iteratorIcLj40EEC1EPcj
        THUMB
// __code __interwork __vfp std::_Array_iterator<char, 40U>::_Array_iterator(char *, size_t)
_ZNSt15_Array_iteratorIcLj40EEC1EPcj:
        PUSH     {R4,LR}
          CFI R14 Frame(CFA, -4)
          CFI R4 Frame(CFA, -8)
          CFI CFA R13+8
        MOVS     R4,R0
        MOVS     R0,R4
          CFI FunCall _ZNSt21_Array_const_iteratorIcLj40EEC2EPKcj
        BL       _ZNSt21_Array_const_iteratorIcLj40EEC2EPKcj
        MOVS     R0,R4
        POP      {R4,PC}          ;; return
          CFI EndBlock cfiBlock8

        SECTION `.text`:CODE:REORDER:NOROOT(1)
        SECTION_GROUP _ZNSt15_Array_iteratorIcLj40EE10_RecheckedEPc
          CFI Block cfiBlock9 Using cfiCommon0
          CFI Function _ZNSt15_Array_iteratorIcLj40EE10_RecheckedEPc
        THUMB
// __interwork __vfp std::_Array_iterator<char, 40U> &std::_Array_iterator<char, 40U>::_Rechecked(char *)
_ZNSt15_Array_iteratorIcLj40EE10_RecheckedEPc:
        PUSH     {R4,LR}
          CFI R14 Frame(CFA, -4)
          CFI R4 Frame(CFA, -8)
          CFI CFA R13+8
        MOVS     R4,R0
        MOVS     R0,R4
          CFI FunCall _ZNSt21_Array_const_iteratorIcLj40EE10_RecheckedEPKc
        BL       _ZNSt21_Array_const_iteratorIcLj40EE10_RecheckedEPKc
        MOVS     R0,R4
        POP      {R4,PC}          ;; return
          CFI EndBlock cfiBlock9

        SECTION `.text`:CODE:REORDER:NOROOT(1)
        SECTION_GROUP _ZNKSt15_Array_iteratorIcLj40EE10_UncheckedEv
          CFI Block cfiBlock10 Using cfiCommon0
          CFI Function _ZNKSt15_Array_iteratorIcLj40EE10_UncheckedEv
        THUMB
// __interwork __vfp char * std::_Array_iterator<char, 40U>::_Unchecked() const
_ZNKSt15_Array_iteratorIcLj40EE10_UncheckedEv:
        PUSH     {R7,LR}
          CFI R14 Frame(CFA, -4)
          CFI CFA R13+8
          CFI FunCall _ZNKSt21_Array_const_iteratorIcLj40EE10_UncheckedEv
        BL       _ZNKSt21_Array_const_iteratorIcLj40EE10_UncheckedEv
        POP      {R1,PC}          ;; return
          CFI EndBlock cfiBlock10

        SECTION `.text`:CODE:REORDER:NOROOT(1)
        SECTION_GROUP _ZSt10_UncheckedIcLj40EENSt15_Array_iteratorIT_XT0_EE15_Unchecked_typeES2_
          CFI Block cfiBlock11 Using cfiCommon0
          CFI Function _ZSt10_UncheckedIcLj40EENSt15_Array_iteratorIT_XT0_EE15_Unchecked_typeES2_
        THUMB
// __interwork __vfp char * std::_Unchecked<char, 40U>(std::_Array_iterator<char, 40U>)
_ZSt10_UncheckedIcLj40EENSt15_Array_iteratorIT_XT0_EE15_Unchecked_typeES2_:
        PUSH     {R0,LR}
          CFI R14 Frame(CFA, -4)
          CFI CFA R13+8
        MOV      R0,SP
          CFI FunCall _ZNKSt15_Array_iteratorIcLj40EE10_UncheckedEv
        BL       _ZNKSt15_Array_iteratorIcLj40EE10_UncheckedEv
        POP      {R1,PC}          ;; return
          CFI EndBlock cfiBlock11

        SECTION `.text`:CODE:REORDER:NOROOT(1)
        SECTION_GROUP _ZSt10_RecheckedIcLj40EERSt15_Array_iteratorIT_XT0_EES3_NS2_15_Unchecked_typeE
          CFI Block cfiBlock12 Using cfiCommon0
          CFI Function _ZSt10_RecheckedIcLj40EERSt15_Array_iteratorIT_XT0_EES3_NS2_15_Unchecked_typeE
        THUMB
// __interwork __vfp std::_Array_iterator<char, 40U> &std::_Rechecked<char, 40U>(std::_Array_iterator<char, 40U> &, char *)
_ZSt10_RecheckedIcLj40EERSt15_Array_iteratorIT_XT0_EES3_NS2_15_Unchecked_typeE:
        PUSH     {R7,LR}
          CFI R14 Frame(CFA, -4)
          CFI CFA R13+8
          CFI FunCall _ZNSt15_Array_iteratorIcLj40EE10_RecheckedEPc
        BL       _ZNSt15_Array_iteratorIcLj40EE10_RecheckedEPc
        POP      {R1,PC}          ;; return
          CFI EndBlock cfiBlock12

        SECTION `.text`:CODE:REORDER:NOROOT(1)
        SECTION_GROUP _ZSt10_Copy_implIPKcPcET0_T_S4_S3_St24_Scalar_ptr_iterator_tag
          CFI Block cfiBlock13 Using cfiCommon0
          CFI Function _ZSt10_Copy_implIPKcPcET0_T_S4_S3_St24_Scalar_ptr_iterator_tag
        THUMB
// __interwork __vfp char *std::_Copy_impl<char const *, char *>(char const *, char const *, char *, std::_Scalar_ptr_iterator_tag)
_ZSt10_Copy_implIPKcPcET0_T_S4_S3_St24_Scalar_ptr_iterator_tag:
        PUSH     {R4-R6,LR}
          CFI R14 Frame(CFA, -4)
          CFI R6 Frame(CFA, -8)
          CFI R5 Frame(CFA, -12)
          CFI R4 Frame(CFA, -16)
          CFI CFA R13+16
        MOVS     R4,R1
        MOVS     R5,R2
        SUBS     R4,R4,R0
        MOVS     R2,R4
        MOVS     R6,R5
        MOVS     R1,R0
        MOVS     R0,R6
          CFI FunCall __aeabi_memmove
        BL       __aeabi_memmove
        ADD      R0,R5,R4
        POP      {R4-R6,PC}       ;; return
          CFI EndBlock cfiBlock13

        SECTION `.text`:CODE:REORDER:NOROOT(1)
        SECTION_GROUP _ZSt10_Copy_implIPKcPcET0_T_S4_S3_
          CFI Block cfiBlock14 Using cfiCommon0
          CFI Function _ZSt10_Copy_implIPKcPcET0_T_S4_S3_
        THUMB
// __interwork __vfp char * std::_Copy_impl<char const *, char *>(char const *, char const *, char *)
_ZSt10_Copy_implIPKcPcET0_T_S4_S3_:
        PUSH     {R4-R6,LR}
          CFI R14 Frame(CFA, -4)
          CFI R6 Frame(CFA, -8)
          CFI R5 Frame(CFA, -12)
          CFI R4 Frame(CFA, -16)
          CFI CFA R13+16
        MOVS     R4,R0
        MOVS     R5,R1
        MOVS     R6,R2
        MOVS     R1,R6
        MOVS     R0,R4
          CFI FunCall _ZSt8_Ptr_catPKcPc
        BL       _ZSt8_Ptr_catPKcPc
        MOVS     R3,R0
        MOVS     R2,R6
        MOVS     R1,R5
        MOVS     R0,R4
          CFI FunCall _ZSt10_Copy_implIPKcPcET0_T_S4_S3_St24_Scalar_ptr_iterator_tag
        BL       _ZSt10_Copy_implIPKcPcET0_T_S4_S3_St24_Scalar_ptr_iterator_tag
        POP      {R4-R6,PC}       ;; return
          CFI EndBlock cfiBlock14

        SECTION `.text`:CODE:REORDER:NOROOT(1)
        SECTION_GROUP _ZSt4copyIPKcSt15_Array_iteratorIcLj40EEET0_T_S5_S4_
          CFI Block cfiBlock15 Using cfiCommon0
          CFI Function _ZSt4copyIPKcSt15_Array_iteratorIcLj40EEET0_T_S5_S4_
        THUMB
// __interwork __vfp std::array<char, 40U>::iterator std::copy<char const *, std::array<char, 40U>::iterator>(char const *, char const *, std::array<char, 40U>::iterator)
_ZSt4copyIPKcSt15_Array_iteratorIcLj40EEET0_T_S5_S4_:
        PUSH     {R1,R2,R4-R6,LR}
          CFI R14 Frame(CFA, -4)
          CFI R6 Frame(CFA, -8)
          CFI R5 Frame(CFA, -12)
          CFI R4 Frame(CFA, -16)
          CFI CFA R13+24
        MOVS     R4,R0
        MOVS     R5,R1
        LDR      R0,[SP, #+4]
          CFI FunCall _ZSt10_UncheckedIcLj40EENSt15_Array_iteratorIT_XT0_EE15_Unchecked_typeES2_
        BL       _ZSt10_UncheckedIcLj40EENSt15_Array_iteratorIT_XT0_EE15_Unchecked_typeES2_
        MOVS     R6,R0
        MOVS     R0,R5
          CFI FunCall _ZSt10_UncheckedIPKcET_S2_
        BL       _ZSt10_UncheckedIPKcET_S2_
        MOVS     R5,R0
        MOVS     R0,R4
          CFI FunCall _ZSt10_UncheckedIPKcET_S2_
        BL       _ZSt10_UncheckedIPKcET_S2_
        MOVS     R2,R6
        MOVS     R1,R5
          CFI FunCall _ZSt10_Copy_implIPKcPcET0_T_S4_S3_
        BL       _ZSt10_Copy_implIPKcPcET0_T_S4_S3_
        MOVS     R1,R0
        ADD      R0,SP,#+4
          CFI FunCall _ZSt10_RecheckedIcLj40EERSt15_Array_iteratorIT_XT0_EES3_NS2_15_Unchecked_typeE
        BL       _ZSt10_RecheckedIcLj40EERSt15_Array_iteratorIT_XT0_EES3_NS2_15_Unchecked_typeE
        LDR      R0,[R0, #+0]
        POP      {R1,R2,R4-R6,PC}  ;; return
          CFI EndBlock cfiBlock15

        SECTION `.text`:CODE:REORDER:NOROOT(1)
        SECTION_GROUP _ZNSt5arrayIcLj40EE5beginEv
          CFI Block cfiBlock16 Using cfiCommon0
          CFI Function _ZNSt5arrayIcLj40EE5beginEv
        THUMB
// __interwork __vfp std::array<char, 40U>::iterator std::array<char, 40U>::begin()
_ZNSt5arrayIcLj40EE5beginEv:
        PUSH     {R7,LR}
          CFI R14 Frame(CFA, -4)
          CFI CFA R13+8
          CFI FunCall _ZSt9addressofIcEPT_RS0_
        BL       _ZSt9addressofIcEPT_RS0_
        MOVS     R2,#+0
        MOVS     R1,R0
        MOV      R0,SP
          CFI FunCall _ZNSt15_Array_iteratorIcLj40EEC1EPcj
        BL       _ZNSt15_Array_iteratorIcLj40EEC1EPcj
        LDR      R0,[R0, #+0]
        POP      {R1,PC}          ;; return
          CFI EndBlock cfiBlock16

        SECTION `.text`:CODE:REORDER:NOROOT(1)
        SECTION_GROUP _ZN10SusuStringILj40EEC1Ev
          CFI Block cfiBlock17 Using cfiCommon0
          CFI Function _ZN10SusuStringILj40EEC1Ev
          CFI NoCalls
        THUMB
// __code __interwork __vfp SusuString<40U>::SusuString()
_ZN10SusuStringILj40EEC1Ev:
        MOVS     R1,#+40
        STR      R1,[R0, #+40]
        BX       LR               ;; return
          CFI EndBlock cfiBlock17

        SECTION `.text`:CODE:REORDER:NOROOT(1)
        SECTION_GROUP _ZN10SusuStringILj40EE3SetILj9EEEvRAT__Kc
          CFI Block cfiBlock18 Using cfiCommon0
          CFI Function _ZN10SusuStringILj40EE3SetILj9EEEvRAT__Kc
        THUMB
// __interwork __vfp void SusuString<40U>::Set<9U>(char const (&)[9])
_ZN10SusuStringILj40EE3SetILj9EEEvRAT__Kc:
        PUSH     {R4,LR}
          CFI R14 Frame(CFA, -4)
          CFI R4 Frame(CFA, -8)
          CFI CFA R13+8
        MOVS     R4,R1
          CFI FunCall _ZNSt5arrayIcLj40EE5beginEv
        BL       _ZNSt5arrayIcLj40EE5beginEv
        MOVS     R2,R0
        ADDS     R1,R4,#+8
        MOVS     R0,R4
          CFI FunCall _ZSt4copyIPKcSt15_Array_iteratorIcLj40EEET0_T_S5_S4_
        BL       _ZSt4copyIPKcSt15_Array_iteratorIcLj40EEET0_T_S5_S4_
        POP      {R4,PC}          ;; return
          CFI EndBlock cfiBlock18

        SECTION `.text`:CODE:REORDER:NOROOT(1)
        SECTION_GROUP _ZN10SusuStringILj40EE3SetILj5EEEvRAT__Kc
          CFI Block cfiBlock19 Using cfiCommon0
          CFI Function _ZN10SusuStringILj40EE3SetILj5EEEvRAT__Kc
        THUMB
// __interwork __vfp void SusuString<40U>::Set<5U>(char const (&)[5])
_ZN10SusuStringILj40EE3SetILj5EEEvRAT__Kc:
        PUSH     {R4,LR}
          CFI R14 Frame(CFA, -4)
          CFI R4 Frame(CFA, -8)
          CFI CFA R13+8
        MOVS     R4,R1
          CFI FunCall _ZNSt5arrayIcLj40EE5beginEv
        BL       _ZNSt5arrayIcLj40EE5beginEv
        MOVS     R2,R0
        ADDS     R1,R4,#+4
        MOVS     R0,R4
          CFI FunCall _ZSt4copyIPKcSt15_Array_iteratorIcLj40EEET0_T_S5_S4_
        BL       _ZSt4copyIPKcSt15_Array_iteratorIcLj40EEET0_T_S5_S4_
        POP      {R4,PC}          ;; return
          CFI EndBlock cfiBlock19

        SECTION `.text`:CODE:REORDER:NOROOT(1)
        SECTION_GROUP _ZNSt6chrono13duration_castINS_8durationIjSt5ratioILx10ELx1000EEEExS2_ILx1ELx1000EEEENSt9enable_ifIXsr3std6chrono12_Is_durationIT_EE5valueES7_E4typeERKNS1_IT0_T1_EE
          CFI Block cfiBlock20 Using cfiCommon0
          CFI Function _ZNSt6chrono13duration_castINS_8durationIjSt5ratioILx10ELx1000EEEExS2_ILx1ELx1000EEEENSt9enable_ifIXsr3std6chrono12_Is_durationIT_EE5valueES7_E4typeERKNS1_IT0_T1_EE
        THUMB
// __interwork __vfp OsWrapper::TicksPerSecond std::chrono::duration_cast<OsWrapper::TicksPerSecond, __int64_t, std::milli>(std::chrono::duration<__int64_t, std::milli> const &)
_ZNSt6chrono13duration_castINS_8durationIjSt5ratioILx10ELx1000EEEExS2_ILx1ELx1000EEEENSt9enable_ifIXsr3std6chrono12_Is_durationIT_EE5valueES7_E4typeERKNS1_IT0_T1_EE:
        PUSH     {R5-R7,LR}
          CFI R14 Frame(CFA, -4)
          CFI CFA R13+16
          CFI FunCall _ZNKSt6chrono8durationIxSt5ratioILx1ELx1000EEE5countEv
        BL       _ZNKSt6chrono8durationIxSt5ratioILx1ELx1000EEE5countEv
        MOVS     R2,#+10
        MOVS     R3,#+0
          CFI FunCall __aeabi_ldivmod
        BL       __aeabi_ldivmod
        STR      R0,[SP, #+4]
        ADD      R1,SP,#+4
        MOV      R0,SP
          CFI FunCall _ZNSt6chrono8durationIjSt5ratioILx10ELx1000EEEC1IjvEERKT_
        BL       _ZNSt6chrono8durationIjSt5ratioILx10ELx1000EEEC1IjvEERKT_
        LDR      R0,[SP, #+0]
        POP      {R1-R3,PC}       ;; return
          CFI EndBlock cfiBlock20

        SECTION `.text`:CODE:REORDER:NOROOT(1)
        SECTION_GROUP _ZNSt6chrono8durationIjSt5ratioILx10ELx1000EEEC1IjvEERKT_
          CFI Block cfiBlock21 Using cfiCommon0
          CFI Function _ZNSt6chrono8durationIjSt5ratioILx10ELx1000EEEC1IjvEERKT_
          CFI NoCalls
        THUMB
// __code __interwork __vfp std::chrono::duration<uint32_t, std::ratio<10LL, 1000LL>>::duration<uint32_t, void>(uint32_t const &)
_ZNSt6chrono8durationIjSt5ratioILx10ELx1000EEEC1IjvEERKT_:
        LDR      R1,[R1, #+0]
        STR      R1,[R0, #+0]
        BX       LR               ;; return
          CFI EndBlock cfiBlock21

        SECTION `.text`:CODE:REORDER:NOROOT(1)
        SECTION_GROUP _ZNKSt6chrono8durationIxSt5ratioILx1ELx1000EEE5countEv
          CFI Block cfiBlock22 Using cfiCommon0
          CFI Function _ZNKSt6chrono8durationIxSt5ratioILx1ELx1000EEE5countEv
          CFI NoCalls
        THUMB
// __interwork __vfp __int64_t std::chrono::duration<__int64_t, std::milli>::count() const
_ZNKSt6chrono8durationIxSt5ratioILx1ELx1000EEE5countEv:
        LDRD     R0,R1,[R0, #+0]
        BX       LR               ;; return
          CFI EndBlock cfiBlock22

        SECTION `.text`:CODE:REORDER:NOROOT(1)
        SECTION_GROUP _ZNKSt6chrono8durationIjSt5ratioILx10ELx1000EEE5countEv
          CFI Block cfiBlock23 Using cfiCommon0
          CFI Function _ZNKSt6chrono8durationIjSt5ratioILx10ELx1000EEE5countEv
          CFI NoCalls
        THUMB
// __interwork __vfp uint32_t std::chrono::duration<uint32_t, std::ratio<10LL, 1000LL>>::count() const
_ZNKSt6chrono8durationIjSt5ratioILx10ELx1000EEE5countEv:
        LDR      R0,[R0, #+0]
        BX       LR               ;; return
          CFI EndBlock cfiBlock23

        SECTION `.rodata`:CONST:REORDER:NOROOT(2)
        SECTION_GROUP _ZTIN9OsWrapper7IThreadE
        DATA
// __absolute __class_type_info const <Typeinfo for OsWrapper::IThread>
_ZTIN9OsWrapper7IThreadE:
        DATA32
        DC32 _ZTVN10__cxxabiv117__class_type_infoE + 0x8
        DC32 _ZTSN9OsWrapper7IThreadE

        SECTION `.rodata`:CONST:REORDER:NOROOT(2)
        SECTION_GROUP _ZTV15DisplayDirector
        DATA
// __absolute void (*const DisplayDirector::__vtbl[3])()
_ZTV15DisplayDirector:
        DATA32
        DC32 0x0, _ZTI15DisplayDirector, _ZN15DisplayDirector7ExecuteEv

        SECTION `.rodata`:CONST:REORDER:NOROOT(2)
        SECTION_GROUP _ZTI12IDisplayView
        DATA
// __absolute __class_type_info const <Typeinfo for IDisplayView>
_ZTI12IDisplayView:
        DATA32
        DC32 _ZTVN10__cxxabiv117__class_type_infoE + 0x8, _ZTS12IDisplayView

        SECTION `.rodata`:CONST:REORDER:NOROOT(2)
        SECTION_GROUP _ZTI15DisplayDirector
        DATA
// __absolute __si_class_type_info const <Typeinfo for DisplayDirector>
_ZTI15DisplayDirector:
        DATA32
        DC32 _ZTVN10__cxxabiv120__si_class_type_infoE + 0x8
        DC32 _ZTS15DisplayDirector, _ZTIN9OsWrapper6ThreadILj256EEE

        SECTION `.rodata`:CONST:REORDER:NOROOT(2)
        SECTION_GROUP _ZTIN9OsWrapper6ThreadILj256EEE
        DATA
// __absolute __si_class_type_info const <Typeinfo for OsWrapper::Thread<(unsigned int)256>>
_ZTIN9OsWrapper6ThreadILj256EEE:
        DATA32
        DC32 _ZTVN10__cxxabiv120__si_class_type_infoE + 0x8
        DC32 _ZTSN9OsWrapper6ThreadILj256EEE, _ZTIN9OsWrapper7IThreadE

        SECTION `.rodata`:CONST:REORDER:NOROOT(2)
        SECTION_GROUP _ZTS12IDisplayView
        DATA
// __absolute char const <Typeinfo name for IDisplayView>[15]
_ZTS12IDisplayView:
        DATA8
        DC8 "12IDisplayView"
        DC8 0

        SECTION `.rodata`:CONST:REORDER:NOROOT(2)
        SECTION_GROUP _ZTSN9OsWrapper7IThreadE
        DATA
// __absolute char const <Typeinfo name for OsWrapper::IThread>[21]
_ZTSN9OsWrapper7IThreadE:
        DATA8
        DC8 "N9OsWrapper7IThreadE"
        DATA
        DC8 0, 0, 0

        SECTION `.rodata`:CONST:REORDER:NOROOT(2)
        SECTION_GROUP _ZTSN9OsWrapper6ThreadILj256EEE
        DATA
// __absolute char const <Typeinfo name for OsWrapper::Thread<(unsigned int)256>>[28]
_ZTSN9OsWrapper6ThreadILj256EEE:
        DATA8
        DC8 "N9OsWrapper6ThreadILj256EEE"

        SECTION `.rodata`:CONST:REORDER:NOROOT(2)
        SECTION_GROUP _ZTS15DisplayDirector
        DATA
// __absolute char const <Typeinfo name for DisplayDirector>[18]
_ZTS15DisplayDirector:
        DATA8
        DC8 "15DisplayDirector"
        DATA16
        DC8 0, 0

        SECTION `.rodata`:CONST:REORDER:NOROOT(2)
        SECTION_GROUP _ZTISt10ctype_base
        DATA
// __absolute __class_type_info const <Typeinfo for std::ctype_base>
_ZTISt10ctype_base:
        DATA32
        DC32 _ZTVN10__cxxabiv117__class_type_infoE + 0x8, _ZTSSt10ctype_base

        SECTION `.rodata`:CONST:REORDER:NOROOT(2)
        SECTION_GROUP _ZTSSt10ctype_base
        DATA
// __absolute char const <Typeinfo name for std::ctype_base>[15]
_ZTSSt10ctype_base:
        DATA8
        DC8 "St10ctype_base"
        DC8 0

        SECTION `.rodata`:CONST:REORDER:NOROOT(2)
        SECTION_GROUP _ZTISt5_IosbIiE
        DATA
// __absolute __class_type_info const <Typeinfo for std::_Iosb<int>>
_ZTISt5_IosbIiE:
        DATA32
        DC32 _ZTVN10__cxxabiv117__class_type_infoE + 0x8, _ZTSSt5_IosbIiE

        SECTION `.rodata`:CONST:REORDER:NOROOT(2)
        SECTION_GROUP _ZTSSt5_IosbIiE
        DATA
// __absolute char const <Typeinfo name for std::_Iosb<int>>[12]
_ZTSSt5_IosbIiE:
        DATA8
        DC8 "St5_IosbIiE"

        SECTION `.rodata`:CONST:REORDER:NOROOT(2)
        DATA
?_0:
        DATA8
        DC8 "Pressure"
        DATA
        DC8 0, 0, 0

        SECTION `.rodata`:CONST:REORDER:NOROOT(2)
        DATA
?_1:
        DATA8
        DC8 "Humidity"
        DATA
        DC8 0, 0, 0

        SECTION `.rodata`:CONST:REORDER:NOROOT(2)
        DATA
?_2:
        DATA8
        DC8 "Temp"
        DATA
        DC8 0, 0, 0

        SECTION `.rodata`:CONST:REORDER:NOROOT(2)
        DATA
?_3:
        DATA8
        DC8 "DewPoint"
        DATA
        DC8 0, 0, 0

        SECTION `.rodata`:CONST:REORDER:NOROOT(3)
        DATA
?_4:
        DATA64
        DC64 3'000

        SECTION `.rodata`:CONST:REORDER:NOROOT(0)
        SECTION_GROUP _ZNSt6chrono12system_clock9is_steadyE
        DATA
// __absolute bool const std::chrono::system_clock::is_steady
_ZNSt6chrono12system_clock9is_steadyE:
        DATA8
        DC8 0

        SECTION `.rodata`:CONST:REORDER:NOROOT(0)
        SECTION_GROUP _ZNSt6chrono12system_clock12is_monotonicE
        DATA
// __absolute bool const std::chrono::system_clock::is_monotonic
_ZNSt6chrono12system_clock12is_monotonicE:
        DATA8
        DC8 0

        SECTION `.rodata`:CONST:REORDER:NOROOT(0)
        SECTION_GROUP _ZNSt6chrono12steady_clock9is_steadyE
        DATA
// __absolute bool const std::chrono::steady_clock::is_steady
_ZNSt6chrono12steady_clock9is_steadyE:
        DATA8
        DC8 1

        SECTION `.text`:CODE:REORDER:NOROOT(1)
        SECTION_GROUP _ZN9OsWrapper11RtosWrapper6wSleepEj
          CFI Block cfiBlock24 Using cfiCommon0
          CFI Function _ZN9OsWrapper11RtosWrapper6wSleepEj
        THUMB
// __interwork __vfp void OsWrapper::RtosWrapper::wSleep(uint32_t)
_ZN9OsWrapper11RtosWrapper6wSleepEj:
        PUSH     {R7,LR}
          CFI R14 Frame(CFA, -4)
          CFI CFA R13+8
          CFI FunCall vTaskDelay
        BL       vTaskDelay
        POP      {R0,PC}          ;; return
          CFI EndBlock cfiBlock24

        SECTION `.text`:CODE:REORDER:NOROOT(1)
        SECTION_GROUP _ZN9OsWrapper7IThread5SleepENSt6chrono8durationIxSt5ratioILx1ELx1000EEEE
          CFI Block cfiBlock25 Using cfiCommon0
          CFI Function _ZN9OsWrapper7IThread5SleepENSt6chrono8durationIxSt5ratioILx1ELx1000EEEE
        THUMB
// __interwork __vfp void OsWrapper::IThread::Sleep(std::chrono::milliseconds)
_ZN9OsWrapper7IThread5SleepENSt6chrono8durationIxSt5ratioILx1ELx1000EEEE:
        PUSH     {R0,R1,R7,LR}
          CFI R14 Frame(CFA, -4)
          CFI CFA R13+16
        SUB      SP,SP,#+8
          CFI CFA R13+24
        ADD      R0,SP,#+8
          CFI FunCall _ZNSt6chrono13duration_castINS_8durationIjSt5ratioILx10ELx1000EEEExS2_ILx1ELx1000EEEENSt9enable_ifIXsr3std6chrono12_Is_durationIT_EE5valueES7_E4typeERKNS1_IT0_T1_EE
        BL       _ZNSt6chrono13duration_castINS_8durationIjSt5ratioILx10ELx1000EEEExS2_ILx1ELx1000EEEENSt9enable_ifIXsr3std6chrono12_Is_durationIT_EE5valueES7_E4typeERKNS1_IT0_T1_EE
        STR      R0,[SP, #+0]
        MOV      R0,SP
          CFI FunCall _ZNKSt6chrono8durationIjSt5ratioILx10ELx1000EEE5countEv
        BL       _ZNKSt6chrono8durationIjSt5ratioILx10ELx1000EEE5countEv
          CFI FunCall _ZN9OsWrapper11RtosWrapper6wSleepEj
        BL       _ZN9OsWrapper11RtosWrapper6wSleepEj
        ADD      SP,SP,#+20
          CFI CFA R13+4
        POP      {PC}             ;; return
          CFI EndBlock cfiBlock25
//    4 #include <iostream>
//    5 

        SECTION `.text`:CODE:NOROOT(2)
          CFI Block cfiBlock26 Using cfiCommon0
          CFI Function _ZN15DisplayDirector7ExecuteEv
        THUMB
//    6 void DisplayDirector::Execute() {
_ZN15DisplayDirector7ExecuteEv:
        PUSH     {R4,R5,LR}
          CFI R14 Frame(CFA, -4)
          CFI R5 Frame(CFA, -8)
          CFI R4 Frame(CFA, -12)
          CFI CFA R13+12
        SUB      SP,SP,#+180
          CFI CFA R13+192
        MOVS     R4,R0
//    7   for(;;){
//    8   SusuString<40> test1;
??Execute_1:
        ADD      R0,SP,#+136
          CFI FunCall _ZN10SusuStringILj40EEC1Ev
        BL       _ZN10SusuStringILj40EEC1Ev
//    9   test1.Set("Pressure");
        LDR.N    R1,??Execute_0
          CFI FunCall _ZN10SusuStringILj40EE3SetILj9EEEvRAT__Kc
        BL       _ZN10SusuStringILj40EE3SetILj9EEEvRAT__Kc
//   10   SusuString<40> test2;
        ADD      R0,SP,#+92
          CFI FunCall _ZN10SusuStringILj40EEC1Ev
        BL       _ZN10SusuStringILj40EEC1Ev
//   11   test2.Set("Humidity");
        LDR.N    R1,??Execute_0+0x4
          CFI FunCall _ZN10SusuStringILj40EE3SetILj9EEEvRAT__Kc
        BL       _ZN10SusuStringILj40EE3SetILj9EEEvRAT__Kc
//   12   SusuString<40> test3;
        ADD      R0,SP,#+48
          CFI FunCall _ZN10SusuStringILj40EEC1Ev
        BL       _ZN10SusuStringILj40EEC1Ev
//   13   test3.Set("Temp");
        LDR.N    R1,??Execute_0+0x8
          CFI FunCall _ZN10SusuStringILj40EE3SetILj5EEEvRAT__Kc
        BL       _ZN10SusuStringILj40EE3SetILj5EEEvRAT__Kc
//   14   SusuString<40> test4;
        ADD      R0,SP,#+4
          CFI FunCall _ZN10SusuStringILj40EEC1Ev
        BL       _ZN10SusuStringILj40EEC1Ev
//   15   test4.Set("DewPoint");
        LDR.N    R1,??Execute_0+0xC
          CFI FunCall _ZN10SusuStringILj40EE3SetILj9EEEvRAT__Kc
        BL       _ZN10SusuStringILj40EE3SetILj9EEEvRAT__Kc
//   16   myView.Update(test1,test2,test3,test4);
        ADD      R0,SP,#+4
        STR      R0,[SP, #+0]
        ADD      R3,SP,#+48
        ADD      R2,SP,#+92
        ADD      R1,SP,#+136
        LDR      R0,[R4, #+1116]
        LDR      R5,[R4, #+1116]
        LDR      R5,[R5, #+0]
        LDR      R5,[R5, #+0]
          CFI FunCall
        BLX      R5
        LDR.N    R2,??Execute_0+0x10
        LDRD     R0,R1,[R2, #+0]
//   17   Sleep(3000ms) ;
          CFI FunCall _ZN9OsWrapper7IThread5SleepENSt6chrono8durationIxSt5ratioILx1ELx1000EEEE
        BL       _ZN9OsWrapper7IThread5SleepENSt6chrono8durationIxSt5ratioILx1ELx1000EEEE
        B.N      ??Execute_1
        Nop      
        DATA
??Execute_0:
        DATA32
        DC32     ?_0
        DC32     ?_1
        DC32     ?_2
        DC32     ?_3
        DC32     ?_4
//   18   }
//   19 }
          CFI EndBlock cfiBlock26

        SECTION `.iar_vfe_vtableinfo_ZTV15DisplayDirector`:DATA:NOALLOC:NOROOT(2)
        SECTION_TYPE SHT_PROGBITS, 0
        SECTION_GROUP _ZTV15DisplayDirector
        DATA
        DC32    _ZTV15DisplayDirector
        DC32    3
        DC32    3
        DC32    _ZTI15DisplayDirector
        DC32    1
        DC32    2
        DC32    0
        DC32    _ZTIN9OsWrapper6ThreadILj256EEE
        DC32    0
        DC32    1
        DC32    _ZTI15DisplayDirector
        DC32    1
        DC32    2
        DC32    0
        DC32    _ZTIN9OsWrapper7IThreadE
        DC32    0
        DC32    1
        DC32    _ZTIN9OsWrapper6ThreadILj256EEE
        DC32    0
        DC32    1
        DC32    _ZTI15DisplayDirector
        DC32    1
        DC32    2
        DC32    0

        SECTION `.iar_vfe_vcallinfo_ZN15DisplayDirector7ExecuteEv`:DATA:NOALLOC:NOROOT(2)
        SECTION_TYPE SHT_PROGBITS, 0
        SECTION_GROUP _ZN15DisplayDirector7ExecuteEv
        DATA
        DC32    _ZN15DisplayDirector7ExecuteEv
        DC32    0
        DC32    0
        DC32    1
        DC32    _ZTI12IDisplayView
        DC32    1
        DC32    1
        DC32    0
        DC32    0

        SECTION `.iar_vfe_header`:DATA:NOALLOC:NOROOT(2)
        SECTION_TYPE SHT_PROGBITS, 0
        DATA
        DC32 0

        END
//   20 
// 
// 239 bytes in section .rodata
// 452 bytes in section .text
// 
// 112 bytes of CODE  memory (+ 340 bytes shared)
//  52 bytes of CONST memory (+ 187 bytes shared)
//
//Errors: none
//Warnings: none
